; Function Attrs: mustprogress uwtable
define hidden void @_ZN7nanogui9TabWidgetC2EPNS_6WidgetERKNSt7__cxx1112basic_stringIcSt11char_traitsIcESaIcEEE(ptr noundef nonnull align 8 dereferenceable(473) %0, ptr noundef %1, ptr noundef nonnull align 8 dereferenceable(32) %2) unnamed_addr #0 align 2 {
  tail call void @_ZN7nanogui13TabWidgetBaseC2EPNS_6WidgetERKNSt7__cxx1112basic_stringIcSt11char_traitsIcESaIcEEE(ptr noundef nonnull align 8 dereferenceable(416) %0, ptr noundef %1, ptr noundef nonnull align 8 dereferenceable(32) %2)
  store ptr getelementptr inbounds ({ [19 x ptr] }, ptr @_ZTVN7nanogui9TabWidgetE, i64 0, i32 0, i64 2), ptr %0, align 8
  %4 = getelementptr inbounds i8, ptr %0, i64 416
  %5 = getelementptr inbounds i8, ptr %0, i64 464
  store ptr %5, ptr %4, align 8
  %6 = getelementptr inbounds i8, ptr %0, i64 424
  store i64 1, ptr %6, align 8
  %7 = getelementptr inbounds i8, ptr %0, i64 432
  %8 = getelementptr inbounds i8, ptr %0, i64 448
  tail call void @llvm.memset.p0.i64(ptr noundef nonnull align 8 dereferenceable(16) %7, i8 0, i64 16, i1 false)
  store float 1.000000e+00, ptr %8, align 8
  %9 = getelementptr inbounds i8, ptr %0, i64 456
  tail call void @llvm.memset.p0.i64(ptr noundef nonnull align 8 dereferenceable(16) %9, i8 0, i64 16, i1 false)
  %10 = getelementptr inbounds i8, ptr %0, i64 472
  store i8 1, ptr %10, align 8
  ret void
}